; Function Attrs: mustprogress nofree norecurse nosync nounwind willreturn memory(argmem: readwrite) uwtable
define void @_ZN2cv4gapi5fluid4ViewC2EOSt10unique_ptrINS2_4PrivESt14default_deleteIS4_EE(ptr noundef nonnull align 8 captures(none) dereferenceable(16) initializes((0, 16)) %0, ptr noundef nonnull align 8 captures(none) dereferenceable(8) %1) unnamed_addr #14 align 2 personality ptr @__gxx_personality_v0 {
  %3 = load i64, ptr %1, align 8, !tbaa !138
  store i64 %3, ptr %0, align 8, !tbaa !138
  store ptr null, ptr %1, align 8, !tbaa !138
  %4 = getelementptr inbounds nuw i8, ptr %0, i64 8
  %5 = load ptr, ptr %0, align 8, !tbaa !138
  %6 = getelementptr inbounds nuw i8, ptr %5, i64 8
  store ptr %6, ptr %4, align 8, !tbaa !165
  ret void
}